target datalayout = "e-m:e-p270:32:32-p271:32:32-p272:64:64-i64:64-i128:128-f80:128-n8:16:32:64-S128"
target triple = "x86_64-pc-linux-gnu"

%"class.sat::literal" = type { i32 }
%"class.smt::justification.base" = type <{ ptr, i8 }>
%"class.smt::justification" = type <{ ptr, i8, [7 x i8] }>
%"class.smt::unit_resolution_justification" = type { %"class.smt::justification.base", ptr, i32, ptr }

; Function Attrs: mustprogress nounwind uwtable
define linkonce_odr hidden void @_ZNSt12_Destroy_auxILb1EE9__destroyIPN3sat7literalEEEvT_S5_(ptr noundef %0, ptr noundef %1) #4 comdat align 2 {
  %3 = alloca ptr, align 8
  %4 = alloca ptr, align 8
  store ptr %0, ptr %3, align 8, !tbaa !3
  store ptr %1, ptr %4, align 8, !tbaa !3
  ret void
}

; Function Attrs: mustprogress nounwind uwtable
define linkonce_odr hidden void @_ZN3sat7literalC2Ev(ptr noundef nonnull align 4 dereferenceable(4) %0) unnamed_addr #4 comdat align 2 {
  %2 = alloca ptr, align 8
  store ptr %0, ptr %2, align 8, !tbaa !3
  %3 = load ptr, ptr %2, align 8
  %4 = getelementptr inbounds nuw %"class.sat::literal", ptr %3, i32 0, i32 0
  store i32 -2, ptr %4, align 4, !tbaa !14
  ret void
}

; Function Attrs: noinline noreturn nounwind uwtable
define linkonce_odr hidden void @__clang_call_terminate(ptr noundef %0) #11 comdat {
  %2 = call ptr @__cxa_begin_catch(ptr %0) #3
  call void @_ZSt9terminatev() #20
  unreachable
}

; Function Attrs: inlinehint mustprogress uwtable
define linkonce_odr hidden void @_ZSt8_DestroyIPN3sat7literalEEvT_S3_(ptr noundef %0, ptr noundef %1) #8 comdat {
  %3 = alloca ptr, align 8
  %4 = alloca ptr, align 8
  store ptr %0, ptr %3, align 8, !tbaa !3
  store ptr %1, ptr %4, align 8, !tbaa !3
  %5 = load ptr, ptr %3, align 8, !tbaa !3
  %6 = load ptr, ptr %4, align 8, !tbaa !3
  call void @_ZNSt12_Destroy_auxILb1EE9__destroyIPN3sat7literalEEEvT_S5_(ptr noundef %5, ptr noundef %6)
  ret void
}

; Function Attrs: inlinehint mustprogress uwtable
define linkonce_odr hidden void @_ZSt18_Construct_novalueIN3sat7literalEEvPT_(ptr noundef %0) #8 comdat {
  %2 = alloca ptr, align 8
  store ptr %0, ptr %2, align 8, !tbaa !3
  %3 = load ptr, ptr %2, align 8, !tbaa !3
  call void @_ZN3sat7literalC2Ev(ptr noundef nonnull align 4 dereferenceable(4) %3)
  ret void
}

; Function Attrs: mustprogress uwtable
define linkonce_odr hidden noundef ptr @_ZNSt35__uninitialized_default_novalue_n_1ILb0EE26__uninit_default_novalue_nIPN3sat7literalEjEET_S5_T0_(ptr noundef %0, i32 noundef %1) #6 comdat align 2 personality ptr @__gxx_personality_v0 {
  %3 = alloca ptr, align 8
  %4 = alloca i32, align 4
  %5 = alloca ptr, align 8
  %6 = alloca ptr, align 8
  %7 = alloca i32, align 4
  store ptr %0, ptr %3, align 8, !tbaa !3
  store i32 %1, ptr %4, align 4, !tbaa !8
  call void @llvm.lifetime.start.p0(i64 8, ptr %5) #3
  %8 = load ptr, ptr %3, align 8, !tbaa !3
  store ptr %8, ptr %5, align 8, !tbaa !3
  br label %9

9:                                                ; preds = %15, %2
  %10 = load i32, ptr %4, align 4, !tbaa !8
  %11 = icmp ugt i32 %10, 0
  br i1 %11, label %12, label %30

12:                                               ; preds = %9
  %13 = load ptr, ptr %5, align 8, !tbaa !3
  invoke void @_ZSt18_Construct_novalueIN3sat7literalEEvPT_(ptr noundef %13)
          to label %14 unwind label %20

14:                                               ; preds = %12
  br label %15

15:                                               ; preds = %14
  %16 = load i32, ptr %4, align 4, !tbaa !8
  %17 = add i32 %16, -1
  store i32 %17, ptr %4, align 4, !tbaa !8
  %18 = load ptr, ptr %5, align 8, !tbaa !3
  %19 = getelementptr inbounds nuw %"class.sat::literal", ptr %18, i32 1
  store ptr %19, ptr %5, align 8, !tbaa !3
  br label %9, !llvm.loop !908

20:                                               ; preds = %12
  %21 = landingpad { ptr, i32 }
          catch ptr null
  %22 = extractvalue { ptr, i32 } %21, 0
  store ptr %22, ptr %6, align 8
  %23 = extractvalue { ptr, i32 } %21, 1
  store i32 %23, ptr %7, align 4
  br label %24

24:                                               ; preds = %20
  %25 = load ptr, ptr %6, align 8
  %26 = call ptr @__cxa_begin_catch(ptr %25) #3
  %27 = load ptr, ptr %3, align 8, !tbaa !3
  %28 = load ptr, ptr %5, align 8, !tbaa !3
  invoke void @_ZSt8_DestroyIPN3sat7literalEEvT_S3_(ptr noundef %27, ptr noundef %28)
          to label %29 unwind label %32

29:                                               ; preds = %24
  invoke void @__cxa_rethrow() #22
          to label %46 unwind label %32

30:                                               ; preds = %9
  %31 = load ptr, ptr %5, align 8, !tbaa !3
  call void @llvm.lifetime.end.p0(i64 8, ptr %5) #3
  ret ptr %31

32:                                               ; preds = %29, %24
  %33 = landingpad { ptr, i32 }
          cleanup
  %34 = extractvalue { ptr, i32 } %33, 0
  store ptr %34, ptr %6, align 8
  %35 = extractvalue { ptr, i32 } %33, 1
  store i32 %35, ptr %7, align 4
  invoke void @__cxa_end_catch()
          to label %36 unwind label %43

36:                                               ; preds = %32
  call void @llvm.lifetime.end.p0(i64 8, ptr %5) #3
  br label %38

37:                                               ; No predecessors!
  unreachable

38:                                               ; preds = %36
  %39 = load ptr, ptr %6, align 8
  %40 = load i32, ptr %7, align 4
  %41 = insertvalue { ptr, i32 } poison, ptr %39, 0
  %42 = insertvalue { ptr, i32 } %41, i32 %40, 1
  resume { ptr, i32 } %42

43:                                               ; preds = %32
  %44 = landingpad { ptr, i32 }
          catch ptr null
  %45 = extractvalue { ptr, i32 } %44, 0
  call void @__clang_call_terminate(ptr %45) #20
  unreachable

46:                                               ; preds = %29
  unreachable
}

; Function Attrs: inlinehint mustprogress uwtable
define linkonce_odr hidden noundef ptr @_ZSt33__uninitialized_default_novalue_nIPN3sat7literalEjET_S3_T0_(ptr noundef %0, i32 noundef %1) #8 comdat {
  %3 = alloca ptr, align 8
  %4 = alloca i32, align 4
  store ptr %0, ptr %3, align 8, !tbaa !3
  store i32 %1, ptr %4, align 4, !tbaa !8
  %5 = load ptr, ptr %3, align 8, !tbaa !3
  %6 = load i32, ptr %4, align 4, !tbaa !8
  %7 = call noundef ptr @_ZNSt35__uninitialized_default_novalue_n_1ILb0EE26__uninit_default_novalue_nIPN3sat7literalEjEET_S5_T0_(ptr noundef %5, i32 noundef %6)
  ret ptr %7
}

; Function Attrs: inlinehint mustprogress uwtable
define linkonce_odr hidden noundef ptr @_ZSt33uninitialized_default_construct_nIPN3sat7literalEjET_S3_T0_(ptr noundef %0, i32 noundef %1) #8 comdat {
  %3 = alloca ptr, align 8
  %4 = alloca i32, align 4
  store ptr %0, ptr %3, align 8, !tbaa !3
  store i32 %1, ptr %4, align 4, !tbaa !8
  %5 = load ptr, ptr %3, align 8, !tbaa !3
  %6 = load i32, ptr %4, align 4, !tbaa !8
  %7 = call noundef ptr @_ZSt33__uninitialized_default_novalue_nIPN3sat7literalEjET_S3_T0_(ptr noundef %5, i32 noundef %6)
  ret ptr %7
}

; Function Attrs: mustprogress nounwind uwtable
define linkonce_odr hidden void @_ZN3smt13justificationD2Ev(ptr noundef nonnull align 8 dereferenceable(9) %0) unnamed_addr #4 comdat align 2 {
  %2 = alloca ptr, align 8
  store ptr %0, ptr %2, align 8, !tbaa !18
  ret void
}

; Function Attrs: mustprogress uwtable
define linkonce_odr hidden noalias noundef ptr @_Z10alloc_vectIN3sat7literalEEPT_j(i32 noundef %0) #6 comdat {
  %2 = alloca i32, align 4
  %3 = alloca ptr, align 8
  store i32 %0, ptr %2, align 4, !tbaa !8
  call void @llvm.lifetime.start.p0(i64 8, ptr %3) #3
  %4 = load i32, ptr %2, align 4, !tbaa !8
  %5 = zext i32 %4 to i64
  %6 = mul i64 4, %5
  %7 = call noalias noundef ptr @_ZN6memory8allocateEm(i64 noundef %6)
  store ptr %7, ptr %3, align 8, !tbaa !3
  %8 = load ptr, ptr %3, align 8, !tbaa !3
  %9 = load i32, ptr %2, align 4, !tbaa !8
  %10 = call noundef ptr @_ZSt33uninitialized_default_construct_nIPN3sat7literalEjET_S3_T0_(ptr noundef %8, i32 noundef %9)
  %11 = load ptr, ptr %3, align 8, !tbaa !3
  call void @llvm.lifetime.end.p0(i64 8, ptr %3) #3
  ret ptr %11
}

; Function Attrs: mustprogress nounwind uwtable
define linkonce_odr hidden void @_ZN3smt13justificationC2Eb(ptr noundef nonnull align 8 dereferenceable(9) %0, i1 noundef zeroext %1) unnamed_addr #4 comdat align 2 {
  %3 = alloca ptr, align 8
  %4 = alloca i8, align 1
  store ptr %0, ptr %3, align 8, !tbaa !18
  %5 = zext i1 %1 to i8
  store i8 %5, ptr %4, align 1, !tbaa !10
  %6 = load ptr, ptr %3, align 8
  store ptr getelementptr inbounds inrange(-16, 72) ({ [11 x ptr] }, ptr @_ZTVN3smt13justificationE, i32 0, i32 0, i32 2), ptr %6, align 8, !tbaa !34
  %7 = getelementptr inbounds nuw %"class.smt::justification", ptr %6, i32 0, i32 1
  %8 = load i8, ptr %7, align 8
  %9 = and i8 %8, -2
  %10 = or i8 %9, 0
  store i8 %10, ptr %7, align 8
  %11 = getelementptr inbounds nuw %"class.smt::justification", ptr %6, i32 0, i32 1
  %12 = load i8, ptr %4, align 1, !tbaa !10, !range !12, !noundef !13
  %13 = trunc i8 %12 to i1
  %14 = zext i1 %13 to i32
  %15 = trunc i32 %14 to i8
  %16 = load i8, ptr %11, align 8
  %17 = and i8 %15, 1
  %18 = shl i8 %17, 1
  %19 = and i8 %16, -3
  %20 = or i8 %19, %18
  store i8 %20, ptr %11, align 8
  ret void
}

; Function Attrs: mustprogress uwtable
define hidden void @_ZN3smt29unit_resolution_justificationC2EPNS_13justificationEjPKN3sat7literalE(ptr noundef nonnull align 8 dereferenceable(40) %0, ptr noundef %1, i32 noundef %2, ptr noundef %3) unnamed_addr #6 align 2 personality ptr @__gxx_personality_v0 {
  %5 = alloca ptr, align 8
  %6 = alloca ptr, align 8
  %7 = alloca i32, align 4
  %8 = alloca ptr, align 8
  %9 = alloca ptr, align 8
  %10 = alloca i32, align 4
  store ptr %0, ptr %5, align 8, !tbaa !534
  store ptr %1, ptr %6, align 8, !tbaa !18
  store i32 %2, ptr %7, align 4, !tbaa !8
  store ptr %3, ptr %8, align 8, !tbaa !3
  %11 = load ptr, ptr %5, align 8
  call void @_ZN3smt13justificationC2Eb(ptr noundef nonnull align 8 dereferenceable(9) %11, i1 noundef zeroext false)
  store ptr getelementptr inbounds inrange(-16, 72) ({ [11 x ptr] }, ptr @_ZTVN3smt29unit_resolution_justificationE, i32 0, i32 0, i32 2), ptr %11, align 8, !tbaa !34
  %12 = getelementptr inbounds nuw %"class.smt::unit_resolution_justification", ptr %11, i32 0, i32 1
  %13 = load ptr, ptr %6, align 8, !tbaa !18
  store ptr %13, ptr %12, align 8, !tbaa !536
  %14 = getelementptr inbounds nuw %"class.smt::unit_resolution_justification", ptr %11, i32 0, i32 2
  %15 = load i32, ptr %7, align 4, !tbaa !8
  store i32 %15, ptr %14, align 8, !tbaa !538
  %16 = load i32, ptr %7, align 4, !tbaa !8
  %17 = invoke noalias noundef ptr @_Z10alloc_vectIN3sat7literalEEPT_j(i32 noundef %16)
          to label %18 unwind label %26

18:                                               ; preds = %4
  %19 = getelementptr inbounds nuw %"class.smt::unit_resolution_justification", ptr %11, i32 0, i32 3
  store ptr %17, ptr %19, align 8, !tbaa !540
  %20 = getelementptr inbounds nuw %"class.smt::unit_resolution_justification", ptr %11, i32 0, i32 3
  %21 = load ptr, ptr %20, align 8, !tbaa !540
  %22 = load ptr, ptr %8, align 8, !tbaa !3
  %23 = load i32, ptr %7, align 4, !tbaa !8
  %24 = zext i32 %23 to i64
  %25 = mul i64 4, %24
  call void @llvm.memcpy.p0.p0.i64(ptr align 4 %21, ptr align 4 %22, i64 %25, i1 false)
  ret void

26:                                               ; preds = %4
  %27 = landingpad { ptr, i32 }
          cleanup
  %28 = extractvalue { ptr, i32 } %27, 0
  store ptr %28, ptr %9, align 8
  %29 = extractvalue { ptr, i32 } %27, 1
  store i32 %29, ptr %10, align 4
  call void @_ZN3smt13justificationD2Ev(ptr noundef nonnull align 8 dereferenceable(9) %11) #3
  br label %30

30:                                               ; preds = %26
  %31 = load ptr, ptr %9, align 8
  %32 = load i32, ptr %10, align 4
  %33 = insertvalue { ptr, i32 } poison, ptr %31, 0
  %34 = insertvalue { ptr, i32 } %33, i32 %32, 1
  resume { ptr, i32 } %34
}