; Function Attrs: mustprogress uwtable
define hidden void @_ZN3smt29unit_resolution_justificationC2EPNS_13justificationEjPKN3sat7literalE(ptr noundef nonnull align 8 captures(none) dereferenceable(40) initializes((0, 8), (16, 28)) %0, ptr noundef %1, i32 noundef %2, ptr noundef readonly captures(none) %3) unnamed_addr #5 align 2 personality ptr @__gxx_personality_v0 {
.noexc:
  %4 = getelementptr inbounds nuw i8, ptr %0, i64 8
  %5 = load i8, ptr %4, align 8
  %6 = and i8 %5, -4
  store i8 %6, ptr %4, align 8
  store ptr getelementptr inbounds nuw inrange(-16, 72) (i8, ptr @_ZTVN3smt29unit_resolution_justificationE, i64 16), ptr %0, align 8, !tbaa !3
  %7 = getelementptr inbounds nuw i8, ptr %0, i64 16
  store ptr %1, ptr %7, align 8, !tbaa !15
  %8 = getelementptr inbounds nuw i8, ptr %0, i64 24
  store i32 %2, ptr %8, align 8, !tbaa !19
  %9 = zext i32 %2 to i64
  %10 = shl nuw nsw i64 %9, 2
  %11 = tail call noalias noundef ptr @_ZN6memory8allocateEm(i64 noundef %10)
  %.not11.i.i.i.i = icmp eq i32 %2, 0
  br i1 %.not11.i.i.i.i, label %_Z10alloc_vectIN3sat7literalEEPT_j.exit, label %.lr.ph.i.i.i.i

.lr.ph.i.i.i.i:                                   ; preds = %.noexc, %.lr.ph.i.i.i.i
  %.013.i.i.i.i = phi ptr [ %13, %.lr.ph.i.i.i.i ], [ %11, %.noexc ]
  %.01012.i.i.i.i = phi i32 [ %12, %.lr.ph.i.i.i.i ], [ %2, %.noexc ]
  store i32 -2, ptr %.013.i.i.i.i, align 4, !tbaa !20
  %12 = add i32 %.01012.i.i.i.i, -1
  %13 = getelementptr inbounds nuw i8, ptr %.013.i.i.i.i, i64 4
  %.not.i.i.i.i = icmp eq i32 %12, 0
  br i1 %.not.i.i.i.i, label %_Z10alloc_vectIN3sat7literalEEPT_j.exit, label %.lr.ph.i.i.i.i, !llvm.loop !23

_Z10alloc_vectIN3sat7literalEEPT_j.exit:          ; preds = %.lr.ph.i.i.i.i, %.noexc
  %14 = getelementptr inbounds nuw i8, ptr %0, i64 32
  store ptr %11, ptr %14, align 8, !tbaa !22
  tail call void @llvm.memcpy.p0.p0.i64(ptr align 4 %11, ptr align 4 %3, i64 %10, i1 false)
  ret void
}